target datalayout = "e-m:e-p270:32:32-p271:32:32-p272:64:64-i64:64-i128:128-f80:128-n8:16:32:64-S128"
target triple = "x86_64-pc-linux-gnu"

%struct.Py_complex = type { double, double }

@.str.14 = private unnamed_addr constant [4 x i8] c"log\00", align 1
@PyExc_ValueError = external global ptr, align 8
@.str.25 = private unnamed_addr constant [18 x i8] c"math domain error\00", align 1
@PyExc_OverflowError = external global ptr, align 8
@.str.26 = private unnamed_addr constant [17 x i8] c"math range error\00", align 1

; Function Attrs: nounwind uwtable
define internal ptr @math_error() #0 {
  %1 = call ptr @__errno_location() #9
  %2 = load i32, ptr %1, align 4, !tbaa !11
  %3 = icmp eq i32 %2, 33
  br i1 %3, label %4, label %6

4:                                                ; preds = %0
  %5 = load ptr, ptr @PyExc_ValueError, align 8, !tbaa !3
  call void @PyErr_SetString(ptr noundef %5, ptr noundef @.str.25)
  br label %16

6:                                                ; preds = %0
  %7 = call ptr @__errno_location() #9
  %8 = load i32, ptr %7, align 4, !tbaa !11
  %9 = icmp eq i32 %8, 34
  br i1 %9, label %10, label %12

10:                                               ; preds = %6
  %11 = load ptr, ptr @PyExc_OverflowError, align 8, !tbaa !3
  call void @PyErr_SetString(ptr noundef %11, ptr noundef @.str.26)
  br label %15

12:                                               ; preds = %6
  %13 = load ptr, ptr @PyExc_ValueError, align 8, !tbaa !3
  %14 = call ptr @PyErr_SetFromErrno(ptr noundef %13)
  br label %15

15:                                               ; preds = %12, %10
  br label %16

16:                                               ; preds = %15, %4
  ret ptr null
}

; Function Attrs: nounwind uwtable
define internal ptr @cmath_log_impl(ptr noundef %0, double %1, double %2, ptr noundef %3) #0 {
  %5 = alloca ptr, align 8
  %6 = alloca %struct.Py_complex, align 8
  %7 = alloca ptr, align 8
  %8 = alloca ptr, align 8
  %9 = alloca %struct.Py_complex, align 8
  %10 = alloca %struct.Py_complex, align 8
  %11 = alloca %struct.Py_complex, align 8
  %12 = alloca i32, align 4
  %13 = alloca %struct.Py_complex, align 8
  %14 = alloca %struct.Py_complex, align 8
  %15 = getelementptr inbounds nuw { double, double }, ptr %6, i32 0, i32 0
  store double %1, ptr %15, align 8
  %16 = getelementptr inbounds nuw { double, double }, ptr %6, i32 0, i32 1
  store double %2, ptr %16, align 8
  store ptr %0, ptr %7, align 8, !tbaa !3
  store ptr %3, ptr %8, align 8, !tbaa !3
  call void @llvm.lifetime.start.p0(i64 16, ptr %9) #8
  %17 = call ptr @__errno_location() #9
  store i32 0, ptr %17, align 4, !tbaa !11
  call void @llvm.lifetime.start.p0(i64 16, ptr %10) #8
  %18 = getelementptr inbounds nuw { double, double }, ptr %6, i32 0, i32 0
  %19 = load double, ptr %18, align 8
  %20 = getelementptr inbounds nuw { double, double }, ptr %6, i32 0, i32 1
  %21 = load double, ptr %20, align 8
  %22 = call { double, double } @c_log(double %19, double %21)
  %23 = getelementptr inbounds nuw { double, double }, ptr %10, i32 0, i32 0
  %24 = extractvalue { double, double } %22, 0
  store double %24, ptr %23, align 8
  %25 = getelementptr inbounds nuw { double, double }, ptr %10, i32 0, i32 1
  %26 = extractvalue { double, double } %22, 1
  store double %26, ptr %25, align 8
  call void @llvm.memcpy.p0.p0.i64(ptr align 8 %6, ptr align 8 %10, i64 16, i1 false), !tbaa.struct !8
  call void @llvm.lifetime.end.p0(i64 16, ptr %10) #8
  %27 = load ptr, ptr %8, align 8, !tbaa !3
  %28 = icmp ne ptr %27, null
  br i1 %28, label %29, label %62

29:                                               ; preds = %4
  call void @llvm.lifetime.start.p0(i64 16, ptr %11) #8
  %30 = load ptr, ptr %8, align 8, !tbaa !3
  %31 = call { double, double } @PyComplex_AsCComplex(ptr noundef %30)
  %32 = getelementptr inbounds nuw { double, double }, ptr %11, i32 0, i32 0
  %33 = extractvalue { double, double } %31, 0
  store double %33, ptr %32, align 8
  %34 = getelementptr inbounds nuw { double, double }, ptr %11, i32 0, i32 1
  %35 = extractvalue { double, double } %31, 1
  store double %35, ptr %34, align 8
  call void @llvm.memcpy.p0.p0.i64(ptr align 8 %9, ptr align 8 %11, i64 16, i1 false), !tbaa.struct !8
  call void @llvm.lifetime.end.p0(i64 16, ptr %11) #8
  %36 = call ptr @PyErr_Occurred()
  %37 = icmp ne ptr %36, null
  br i1 %37, label %38, label %39

38:                                               ; preds = %29
  store ptr null, ptr %5, align 8
  store i32 1, ptr %12, align 4
  br label %74

39:                                               ; preds = %29
  call void @llvm.lifetime.start.p0(i64 16, ptr %13) #8
  %40 = getelementptr inbounds nuw { double, double }, ptr %9, i32 0, i32 0
  %41 = load double, ptr %40, align 8
  %42 = getelementptr inbounds nuw { double, double }, ptr %9, i32 0, i32 1
  %43 = load double, ptr %42, align 8
  %44 = call { double, double } @c_log(double %41, double %43)
  %45 = getelementptr inbounds nuw { double, double }, ptr %13, i32 0, i32 0
  %46 = extractvalue { double, double } %44, 0
  store double %46, ptr %45, align 8
  %47 = getelementptr inbounds nuw { double, double }, ptr %13, i32 0, i32 1
  %48 = extractvalue { double, double } %44, 1
  store double %48, ptr %47, align 8
  call void @llvm.memcpy.p0.p0.i64(ptr align 8 %9, ptr align 8 %13, i64 16, i1 false), !tbaa.struct !8
  call void @llvm.lifetime.end.p0(i64 16, ptr %13) #8
  call void @llvm.lifetime.start.p0(i64 16, ptr %14) #8
  %49 = getelementptr inbounds nuw { double, double }, ptr %6, i32 0, i32 0
  %50 = load double, ptr %49, align 8
  %51 = getelementptr inbounds nuw { double, double }, ptr %6, i32 0, i32 1
  %52 = load double, ptr %51, align 8
  %53 = getelementptr inbounds nuw { double, double }, ptr %9, i32 0, i32 0
  %54 = load double, ptr %53, align 8
  %55 = getelementptr inbounds nuw { double, double }, ptr %9, i32 0, i32 1
  %56 = load double, ptr %55, align 8
  %57 = call { double, double } @_Py_c_quot(double %50, double %52, double %54, double %56)
  %58 = getelementptr inbounds nuw { double, double }, ptr %14, i32 0, i32 0
  %59 = extractvalue { double, double } %57, 0
  store double %59, ptr %58, align 8
  %60 = getelementptr inbounds nuw { double, double }, ptr %14, i32 0, i32 1
  %61 = extractvalue { double, double } %57, 1
  store double %61, ptr %60, align 8
  call void @llvm.memcpy.p0.p0.i64(ptr align 8 %6, ptr align 8 %14, i64 16, i1 false), !tbaa.struct !8
  call void @llvm.lifetime.end.p0(i64 16, ptr %14) #8
  br label %62

62:                                               ; preds = %39, %4
  %63 = call ptr @__errno_location() #9
  %64 = load i32, ptr %63, align 4, !tbaa !11
  %65 = icmp ne i32 %64, 0
  br i1 %65, label %66, label %68

66:                                               ; preds = %62
  %67 = call ptr @math_error()
  store ptr %67, ptr %5, align 8
  store i32 1, ptr %12, align 4
  br label %74

68:                                               ; preds = %62
  %69 = getelementptr inbounds nuw { double, double }, ptr %6, i32 0, i32 0
  %70 = load double, ptr %69, align 8
  %71 = getelementptr inbounds nuw { double, double }, ptr %6, i32 0, i32 1
  %72 = load double, ptr %71, align 8
  %73 = call ptr @PyComplex_FromCComplex(double %70, double %72)
  store ptr %73, ptr %5, align 8
  store i32 1, ptr %12, align 4
  br label %74

74:                                               ; preds = %68, %66, %38
  call void @llvm.lifetime.end.p0(i64 16, ptr %9) #8
  %75 = load ptr, ptr %5, align 8
  ret ptr %75
}

; Function Attrs: nounwind uwtable
define internal ptr @cmath_log(ptr noundef %0, ptr noundef %1, i64 noundef %2) #0 {
  %4 = alloca ptr, align 8
  %5 = alloca ptr, align 8
  %6 = alloca i64, align 8
  %7 = alloca ptr, align 8
  %8 = alloca %struct.Py_complex, align 8
  %9 = alloca ptr, align 8
  %10 = alloca %struct.Py_complex, align 8
  store ptr %0, ptr %4, align 8, !tbaa !3
  store ptr %1, ptr %5, align 8, !tbaa !13
  store i64 %2, ptr %6, align 8, !tbaa !15
  call void @llvm.lifetime.start.p0(i64 8, ptr %7) #8
  store ptr null, ptr %7, align 8, !tbaa !3
  call void @llvm.lifetime.start.p0(i64 16, ptr %8) #8
  call void @llvm.lifetime.start.p0(i64 8, ptr %9) #8
  store ptr null, ptr %9, align 8, !tbaa !3
  %11 = load i64, ptr %6, align 8, !tbaa !15
  %12 = icmp sle i64 1, %11
  br i1 %12, label %13, label %16

13:                                               ; preds = %3
  %14 = load i64, ptr %6, align 8, !tbaa !15
  %15 = icmp sle i64 %14, 2
  br i1 %15, label %21, label %16

16:                                               ; preds = %13, %3
  %17 = load i64, ptr %6, align 8, !tbaa !15
  %18 = call i32 @_PyArg_CheckPositional(ptr noundef @.str.14, i64 noundef %17, i64 noundef 1, i64 noundef 2)
  %19 = icmp ne i32 %18, 0
  br i1 %19, label %21, label %20

20:                                               ; preds = %16
  br label %49

21:                                               ; preds = %16, %13
  call void @llvm.lifetime.start.p0(i64 16, ptr %10) #8
  %22 = load ptr, ptr %5, align 8, !tbaa !13
  %23 = getelementptr ptr, ptr %22, i64 0
  %24 = load ptr, ptr %23, align 8, !tbaa !3
  %25 = call { double, double } @PyComplex_AsCComplex(ptr noundef %24)
  %26 = getelementptr inbounds nuw { double, double }, ptr %10, i32 0, i32 0
  %27 = extractvalue { double, double } %25, 0
  store double %27, ptr %26, align 8
  %28 = getelementptr inbounds nuw { double, double }, ptr %10, i32 0, i32 1
  %29 = extractvalue { double, double } %25, 1
  store double %29, ptr %28, align 8
  call void @llvm.memcpy.p0.p0.i64(ptr align 8 %8, ptr align 8 %10, i64 16, i1 false), !tbaa.struct !8
  call void @llvm.lifetime.end.p0(i64 16, ptr %10) #8
  %30 = call ptr @PyErr_Occurred()
  %31 = icmp ne ptr %30, null
  br i1 %31, label %32, label %33

32:                                               ; preds = %21
  br label %49

33:                                               ; preds = %21
  %34 = load i64, ptr %6, align 8, !tbaa !15
  %35 = icmp slt i64 %34, 2
  br i1 %35, label %36, label %37

36:                                               ; preds = %33
  br label %41

37:                                               ; preds = %33
  %38 = load ptr, ptr %5, align 8, !tbaa !13
  %39 = getelementptr ptr, ptr %38, i64 1
  %40 = load ptr, ptr %39, align 8, !tbaa !3
  store ptr %40, ptr %9, align 8, !tbaa !3
  br label %41

41:                                               ; preds = %37, %36
  %42 = load ptr, ptr %4, align 8, !tbaa !3
  %43 = load ptr, ptr %9, align 8, !tbaa !3
  %44 = getelementptr inbounds nuw { double, double }, ptr %8, i32 0, i32 0
  %45 = load double, ptr %44, align 8
  %46 = getelementptr inbounds nuw { double, double }, ptr %8, i32 0, i32 1
  %47 = load double, ptr %46, align 8
  %48 = call ptr @cmath_log_impl(ptr noundef %42, double %45, double %47, ptr noundef %43)
  store ptr %48, ptr %7, align 8, !tbaa !3
  br label %49

49:                                               ; preds = %41, %32, %20
  %50 = load ptr, ptr %7, align 8, !tbaa !3
  call void @llvm.lifetime.end.p0(i64 8, ptr %9) #8
  call void @llvm.lifetime.end.p0(i64 16, ptr %8) #8
  call void @llvm.lifetime.end.p0(i64 8, ptr %7) #8
  ret ptr %50
}