; Function Attrs: nounwind uwtable
define internal ptr @cmath_log(ptr readnone captures(none) %0, ptr noundef readonly captures(none) %1, i64 noundef %2) #0 {
  %4 = add i64 %2, -1
  %or.cond = icmp ult i64 %4, 2
  br i1 %or.cond, label %7, label %5

5:                                                ; preds = %3
  %6 = tail call i32 @_PyArg_CheckPositional(ptr noundef nonnull @.str.14, i64 noundef %2, i64 noundef 1, i64 noundef 2) #11
  %.not = icmp eq i32 %6, 0
  br i1 %.not, label %cmath_log_impl.exit, label %7

7:                                                ; preds = %3, %5
  %8 = load ptr, ptr %1, align 8, !tbaa !9
  %9 = tail call { double, double } @PyComplex_AsCComplex(ptr noundef %8) #11
  %10 = extractvalue { double, double } %9, 0
  %11 = extractvalue { double, double } %9, 1
  %12 = tail call ptr @PyErr_Occurred() #11
  %.not12 = icmp eq ptr %12, null
  br i1 %.not12, label %13, label %cmath_log_impl.exit

13:                                               ; preds = %7
  %14 = icmp slt i64 %2, 2
  br i1 %14, label %18, label %15

15:                                               ; preds = %13
  %16 = getelementptr i8, ptr %1, i64 8
  %17 = load ptr, ptr %16, align 8, !tbaa !9
  br label %18

18:                                               ; preds = %13, %15
  %.011 = phi ptr [ null, %13 ], [ %17, %15 ]
  %19 = tail call ptr @__errno_location() #12
  store i32 0, ptr %19, align 4, !tbaa !3
  %20 = tail call fastcc { double, double } @c_log(double %10, double %11)
  %21 = extractvalue { double, double } %20, 0
  %22 = extractvalue { double, double } %20, 1
  %.not.i = icmp eq ptr %.011, null
  br i1 %.not.i, label %35, label %23

23:                                               ; preds = %18
  %24 = tail call { double, double } @PyComplex_AsCComplex(ptr noundef nonnull %.011) #11
  %25 = tail call ptr @PyErr_Occurred() #11
  %.not19.i = icmp eq ptr %25, null
  br i1 %.not19.i, label %26, label %cmath_log_impl.exit

26:                                               ; preds = %23
  %27 = extractvalue { double, double } %24, 1
  %28 = extractvalue { double, double } %24, 0
  %29 = tail call fastcc { double, double } @c_log(double %28, double %27)
  %30 = extractvalue { double, double } %29, 0
  %31 = extractvalue { double, double } %29, 1
  %32 = tail call { double, double } @_Py_c_quot(double %21, double %22, double %30, double %31) #11
  %33 = extractvalue { double, double } %32, 0
  %34 = extractvalue { double, double } %32, 1
  br label %35

35:                                               ; preds = %26, %18
  %.sroa.011.0.i = phi double [ %33, %26 ], [ %21, %18 ]
  %.sroa.614.0.i = phi double [ %34, %26 ], [ %22, %18 ]
  %36 = load i32, ptr %19, align 4, !tbaa !3
  switch i32 %36, label %41 [
    i32 0, label %44
    i32 33, label %37
    i32 34, label %39
  ]

37:                                               ; preds = %35
  %38 = load ptr, ptr @PyExc_ValueError, align 8, !tbaa !9
  tail call void @PyErr_SetString(ptr noundef %38, ptr noundef nonnull @.str.25) #11
  br label %cmath_log_impl.exit

39:                                               ; preds = %35
  %40 = load ptr, ptr @PyExc_OverflowError, align 8, !tbaa !9
  tail call void @PyErr_SetString(ptr noundef %40, ptr noundef nonnull @.str.26) #11
  br label %cmath_log_impl.exit

41:                                               ; preds = %35
  %42 = load ptr, ptr @PyExc_ValueError, align 8, !tbaa !9
  %43 = tail call ptr @PyErr_SetFromErrno(ptr noundef %42) #11
  br label %cmath_log_impl.exit

44:                                               ; preds = %35
  %45 = tail call ptr @PyComplex_FromCComplex(double %.sroa.011.0.i, double %.sroa.614.0.i) #11
  br label %cmath_log_impl.exit

cmath_log_impl.exit:                              ; preds = %44, %41, %39, %37, %23, %7, %5
  %.0 = phi ptr [ null, %7 ], [ null, %5 ], [ %45, %44 ], [ null, %23 ], [ null, %37 ], [ null, %39 ], [ null, %41 ]
  ret ptr %.0
}